; Function Attrs: mustprogress nounwind uwtable
define internal void @"_ZN4absl12lts_2024072222internal_any_invocable22LocalManagerNontrivialIZZN9grpc_core12_GLOBAL__N_119XdsClusterManagerLb12ClusterChild16DeactivateLockedEvEN3$_0clEvEUlvE_EEvNS1_14FunctionToCallEPNS1_15TypeErasedStateESB_"(i1 noundef zeroext %0, ptr noundef captures(none) %1, ptr noundef writeonly captures(none) %2) #16 personality ptr @__gxx_personality_v0 {
  br i1 %0, label %5, label %.thread

.thread:                                          ; preds = %3
  store ptr null, ptr %2, align 8, !tbaa !157
  %4 = load ptr, ptr %1, align 8, !tbaa !157
  store ptr %4, ptr %2, align 8, !tbaa !157
  store ptr null, ptr %1, align 8, !tbaa !157
  br label %"_ZZZN9grpc_core12_GLOBAL__N_119XdsClusterManagerLb12ClusterChild16DeactivateLockedEvEN3$_0clEvENUlvE_D2Ev.exit"

5:                                                ; preds = %3
  %.val.pr = load ptr, ptr %1, align 8, !tbaa !157
  %.not.i.i = icmp eq ptr %.val.pr, null
  br i1 %.not.i.i, label %"_ZZZN9grpc_core12_GLOBAL__N_119XdsClusterManagerLb12ClusterChild16DeactivateLockedEvEN3$_0clEvENUlvE_D2Ev.exit", label %6

6:                                                ; preds = %5
  %7 = getelementptr inbounds nuw i8, ptr %.val.pr, i64 8
  %8 = atomicrmw sub ptr %7, i64 1 acq_rel, align 8
  %9 = icmp eq i64 %8, 1
  br i1 %9, label %10, label %"_ZZZN9grpc_core12_GLOBAL__N_119XdsClusterManagerLb12ClusterChild16DeactivateLockedEvEN3$_0clEvENUlvE_D2Ev.exit", !prof !52

10:                                               ; preds = %6
  tail call void @_ZN9grpc_core12_GLOBAL__N_119XdsClusterManagerLb12ClusterChildD2Ev(ptr noundef nonnull align 8 dereferenceable(112) %.val.pr) #36
  tail call void @_ZdlPvm(ptr noundef nonnull align 8 dereferenceable(16) %.val.pr, i64 noundef 112) #38
  br label %"_ZZZN9grpc_core12_GLOBAL__N_119XdsClusterManagerLb12ClusterChild16DeactivateLockedEvEN3$_0clEvENUlvE_D2Ev.exit"

"_ZZZN9grpc_core12_GLOBAL__N_119XdsClusterManagerLb12ClusterChild16DeactivateLockedEvEN3$_0clEvENUlvE_D2Ev.exit": ; preds = %.thread, %5, %6, %10
  ret void
}